; Function Attrs: nounwind uwtable
define internal void @cf_h1_proxy_destroy(ptr noundef %0, ptr noundef %1) #0 {
  %.not = icmp eq ptr %1, null
  br i1 %.not, label %15, label %3

3:                                                ; preds = %2
  %4 = getelementptr inbounds nuw i8, ptr %1, i64 2642
  %5 = load i64, ptr %4, align 2
  %6 = and i64 %5, 268435456
  %7 = icmp ne i64 %6, 0
  %8 = icmp ne ptr %0, null
  %or.cond = and i1 %8, %7
  br i1 %or.cond, label %9, label %15

9:                                                ; preds = %3
  %10 = load ptr, ptr %0, align 8
  %11 = getelementptr inbounds nuw i8, ptr %10, i64 12
  %12 = load i32, ptr %11, align 4
  %13 = icmp sgt i32 %12, 0
  br i1 %13, label %14, label %15

14:                                               ; preds = %9
  tail call void (ptr, ptr, ptr, ...) @Curl_trc_cf_infof(ptr noundef nonnull %1, ptr noundef nonnull %0, ptr noundef nonnull @.str.1) #5
  br label %15

15:                                               ; preds = %2, %3, %9, %14
  tail call fastcc void @tunnel_free(ptr noundef %0, ptr noundef %1)
  ret void
}